target datalayout = "e-m:e-p270:32:32-p271:32:32-p272:64:64-i64:64-i128:128-f80:128-n8:16:32:64-S128"
target triple = "x86_64-unknown-linux-gnu"

%class.btTypedConstraint = type { ptr, %struct.btTypedObject, i32, %union.anon.0, float, i8, i8, i32, ptr, ptr, float, float, ptr }
%struct.btTypedObject = type { i32 }
%union.anon.0 = type { ptr }
%class.btTransform = type { %class.btMatrix3x3, %class.btVector3 }
%class.btMatrix3x3 = type { [3 x %class.btVector3] }
%class.btVector3 = type { [4 x float] }
%class.btCollisionObject = type <{ ptr, %class.btTransform, %class.btTransform, %class.btVector3, %class.btVector3, %class.btVector3, i32, float, ptr, ptr, ptr, ptr, i32, i32, i32, i32, i32, float, float, float, float, float, float, float, i32, [4 x i8], ptr, i32, i32, i32, float, float, float, i32, [4 x i8], %class.btAlignedObjectArray, i32, %class.btVector3, [4 x i8] }>
%class.btAlignedObjectArray = type <{ %class.btAlignedAllocator, [3 x i8], i32, i32, [4 x i8], ptr, i8, [7 x i8] }>
%class.btAlignedAllocator = type { i8 }
%class.btRigidBody = type { %class.btCollisionObject.base, %class.btMatrix3x3, %class.btVector3, %class.btVector3, float, %class.btVector3, %class.btVector3, %class.btVector3, %class.btVector3, %class.btVector3, %class.btVector3, float, float, i8, float, float, float, float, float, float, ptr, %class.btAlignedObjectArray.1, i32, i32, %class.btVector3, %class.btVector3, %class.btVector3, %class.btVector3, %class.btVector3, %class.btVector3, i32, i32 }
%class.btCollisionObject.base = type <{ ptr, %class.btTransform, %class.btTransform, %class.btVector3, %class.btVector3, %class.btVector3, i32, float, ptr, ptr, ptr, ptr, i32, i32, i32, i32, i32, float, float, float, float, float, float, float, i32, [4 x i8], ptr, i32, i32, i32, float, float, float, i32, [4 x i8], %class.btAlignedObjectArray, i32, %class.btVector3 }>
%class.btAlignedObjectArray.1 = type <{ %class.btAlignedAllocator.2, [3 x i8], i32, i32, [4 x i8], ptr, i8, [7 x i8] }>
%class.btAlignedAllocator.2 = type { i8 }

; Function Attrs: mustprogress nounwind uwtable
define linkonce_odr dso_local noundef nonnull align 4 dereferenceable(16) ptr @_ZNK11btRigidBody18getAngularVelocityEv(ptr noundef nonnull align 8 dereferenceable(744) %this) #1 comdat align 2 {
entry:
  %this.addr = alloca ptr, align 8
  store ptr %this, ptr %this.addr, align 8
  %this1 = load ptr, ptr %this.addr, align 8
  %m_angularVelocity = getelementptr inbounds %class.btRigidBody, ptr %this1, i32 0, i32 3
  ret ptr %m_angularVelocity
}

; Function Attrs: mustprogress nounwind uwtable
define linkonce_odr dso_local noundef nonnull align 4 dereferenceable(16) ptr @_ZNK11btRigidBody17getLinearVelocityEv(ptr noundef nonnull align 8 dereferenceable(744) %this) #1 comdat align 2 {
entry:
  %this.addr = alloca ptr, align 8
  store ptr %this, ptr %this.addr, align 8
  %this1 = load ptr, ptr %this.addr, align 8
  %m_linearVelocity = getelementptr inbounds %class.btRigidBody, ptr %this1, i32 0, i32 2
  ret ptr %m_linearVelocity
}

; Function Attrs: mustprogress nounwind uwtable
define linkonce_odr dso_local noundef nonnull align 4 dereferenceable(64) ptr @_ZNK11btRigidBody24getCenterOfMassTransformEv(ptr noundef nonnull align 8 dereferenceable(744) %this) #1 comdat align 2 {
entry:
  %this.addr = alloca ptr, align 8
  store ptr %this, ptr %this.addr, align 8
  %this1 = load ptr, ptr %this.addr, align 8
  %m_worldTransform = getelementptr inbounds %class.btCollisionObject, ptr %this1, i32 0, i32 1
  ret ptr %m_worldTransform
}

; Function Attrs: mustprogress uwtable
define dso_local void @_ZN30btGeneric6DofSpring2Constraint8getInfo2EPN17btTypedConstraint17btConstraintInfo2E(ptr noundef nonnull align 8 dereferenceable(1484) %this, ptr noundef %info) unnamed_addr #2 align 2 {
entry:
  %this.addr = alloca ptr, align 8
  %info.addr = alloca ptr, align 8
  %transA = alloca ptr, align 8
  %transB = alloca ptr, align 8
  %linVelA = alloca ptr, align 8
  %linVelB = alloca ptr, align 8
  %angVelA = alloca ptr, align 8
  %angVelB = alloca ptr, align 8
  %row = alloca i32, align 4
  store ptr %this, ptr %this.addr, align 8
  store ptr %info, ptr %info.addr, align 8
  %this1 = load ptr, ptr %this.addr, align 8
  %m_rbA = getelementptr inbounds %class.btTypedConstraint, ptr %this1, i32 0, i32 8
  %0 = load ptr, ptr %m_rbA, align 8
  %call = call noundef nonnull align 4 dereferenceable(64) ptr @_ZNK11btRigidBody24getCenterOfMassTransformEv(ptr noundef nonnull align 8 dereferenceable(744) %0)
  store ptr %call, ptr %transA, align 8
  %m_rbB = getelementptr inbounds %class.btTypedConstraint, ptr %this1, i32 0, i32 9
  %1 = load ptr, ptr %m_rbB, align 8
  %call2 = call noundef nonnull align 4 dereferenceable(64) ptr @_ZNK11btRigidBody24getCenterOfMassTransformEv(ptr noundef nonnull align 8 dereferenceable(744) %1)
  store ptr %call2, ptr %transB, align 8
  %m_rbA3 = getelementptr inbounds %class.btTypedConstraint, ptr %this1, i32 0, i32 8
  %2 = load ptr, ptr %m_rbA3, align 8
  %call4 = call noundef nonnull align 4 dereferenceable(16) ptr @_ZNK11btRigidBody17getLinearVelocityEv(ptr noundef nonnull align 8 dereferenceable(744) %2)
  store ptr %call4, ptr %linVelA, align 8
  %m_rbB5 = getelementptr inbounds %class.btTypedConstraint, ptr %this1, i32 0, i32 9
  %3 = load ptr, ptr %m_rbB5, align 8
  %call6 = call noundef nonnull align 4 dereferenceable(16) ptr @_ZNK11btRigidBody17getLinearVelocityEv(ptr noundef nonnull align 8 dereferenceable(744) %3)
  store ptr %call6, ptr %linVelB, align 8
  %m_rbA7 = getelementptr inbounds %class.btTypedConstraint, ptr %this1, i32 0, i32 8
  %4 = load ptr, ptr %m_rbA7, align 8
  %call8 = call noundef nonnull align 4 dereferenceable(16) ptr @_ZNK11btRigidBody18getAngularVelocityEv(ptr noundef nonnull align 8 dereferenceable(744) %4)
  store ptr %call8, ptr %angVelA, align 8
  %m_rbB9 = getelementptr inbounds %class.btTypedConstraint, ptr %this1, i32 0, i32 9
  %5 = load ptr, ptr %m_rbB9, align 8
  %call10 = call noundef nonnull align 4 dereferenceable(16) ptr @_ZNK11btRigidBody18getAngularVelocityEv(ptr noundef nonnull align 8 dereferenceable(744) %5)
  store ptr %call10, ptr %angVelB, align 8
  %6 = load ptr, ptr %info.addr, align 8
  %7 = load ptr, ptr %transA, align 8
  %8 = load ptr, ptr %transB, align 8
  %9 = load ptr, ptr %linVelA, align 8
  %10 = load ptr, ptr %linVelB, align 8
  %11 = load ptr, ptr %angVelA, align 8
  %12 = load ptr, ptr %angVelB, align 8
  %call11 = call noundef i32 @_ZN30btGeneric6DofSpring2Constraint16setAngularLimitsEPN17btTypedConstraint17btConstraintInfo2EiRK11btTransformS5_RK9btVector3S8_S8_S8_(ptr noundef nonnull align 8 dereferenceable(1484) %this1, ptr noundef %6, i32 noundef 0, ptr noundef nonnull align 4 dereferenceable(64) %7, ptr noundef nonnull align 4 dereferenceable(64) %8, ptr noundef nonnull align 4 dereferenceable(16) %9, ptr noundef nonnull align 4 dereferenceable(16) %10, ptr noundef nonnull align 4 dereferenceable(16) %11, ptr noundef nonnull align 4 dereferenceable(16) %12)
  store i32 %call11, ptr %row, align 4
  %13 = load ptr, ptr %info.addr, align 8
  %14 = load i32, ptr %row, align 4
  %15 = load ptr, ptr %transA, align 8
  %16 = load ptr, ptr %transB, align 8
  %17 = load ptr, ptr %linVelA, align 8
  %18 = load ptr, ptr %linVelB, align 8
  %19 = load ptr, ptr %angVelA, align 8
  %20 = load ptr, ptr %angVelB, align 8
  %call12 = call noundef i32 @_ZN30btGeneric6DofSpring2Constraint15setLinearLimitsEPN17btTypedConstraint17btConstraintInfo2EiRK11btTransformS5_RK9btVector3S8_S8_S8_(ptr noundef nonnull align 8 dereferenceable(1484) %this1, ptr noundef %13, i32 noundef %14, ptr noundef nonnull align 4 dereferenceable(64) %15, ptr noundef nonnull align 4 dereferenceable(64) %16, ptr noundef nonnull align 4 dereferenceable(16) %17, ptr noundef nonnull align 4 dereferenceable(16) %18, ptr noundef nonnull align 4 dereferenceable(16) %19, ptr noundef nonnull align 4 dereferenceable(16) %20)
  ret void
}