; Function Attrs: mustprogress uwtable
define dso_local void @_ZN30btGeneric6DofSpring2Constraint8getInfo2EPN17btTypedConstraint17btConstraintInfo2E(ptr noundef nonnull align 8 dereferenceable(1484) %this, ptr nocapture noundef readonly %info) unnamed_addr #1 align 2 {
entry:
  %m_rbA = getelementptr inbounds i8, ptr %this, i64 40
  %0 = load ptr, ptr %m_rbA, align 8
  %m_worldTransform.i = getelementptr inbounds i8, ptr %0, i64 8
  %m_rbB = getelementptr inbounds i8, ptr %this, i64 48
  %1 = load ptr, ptr %m_rbB, align 8
  %m_worldTransform.i8 = getelementptr inbounds i8, ptr %1, i64 8
  %m_linearVelocity.i = getelementptr inbounds i8, ptr %0, i64 420
  %m_linearVelocity.i9 = getelementptr inbounds i8, ptr %1, i64 420
  %m_angularVelocity.i = getelementptr inbounds i8, ptr %0, i64 436
  %m_angularVelocity.i10 = getelementptr inbounds i8, ptr %1, i64 436
  %call11 = tail call noundef i32 @_ZN30btGeneric6DofSpring2Constraint16setAngularLimitsEPN17btTypedConstraint17btConstraintInfo2EiRK11btTransformS5_RK9btVector3S8_S8_S8_(ptr noundef nonnull align 8 dereferenceable(1484) %this, ptr noundef %info, i32 noundef 0, ptr noundef nonnull align 4 dereferenceable(64) %m_worldTransform.i, ptr noundef nonnull align 4 dereferenceable(64) %m_worldTransform.i8, ptr noundef nonnull align 4 dereferenceable(16) %m_linearVelocity.i, ptr noundef nonnull align 4 dereferenceable(16) %m_linearVelocity.i9, ptr noundef nonnull align 4 dereferenceable(16) %m_angularVelocity.i, ptr noundef nonnull align 4 dereferenceable(16) %m_angularVelocity.i10)
  %call12 = tail call noundef i32 @_ZN30btGeneric6DofSpring2Constraint15setLinearLimitsEPN17btTypedConstraint17btConstraintInfo2EiRK11btTransformS5_RK9btVector3S8_S8_S8_(ptr noundef nonnull align 8 dereferenceable(1484) %this, ptr noundef %info, i32 noundef %call11, ptr noundef nonnull align 4 dereferenceable(64) %m_worldTransform.i, ptr noundef nonnull align 4 dereferenceable(64) %m_worldTransform.i8, ptr noundef nonnull align 4 dereferenceable(16) %m_linearVelocity.i, ptr noundef nonnull align 4 dereferenceable(16) %m_linearVelocity.i9, ptr noundef nonnull align 4 dereferenceable(16) %m_angularVelocity.i, ptr noundef nonnull align 4 dereferenceable(16) %m_angularVelocity.i10)
  ret void
}